MPLINK 5.09, LINKER
Linker Map File - Created Mon Jan 12 18:15:47 2026

                                 Section Info
                  Section       Type    Address   Location Size(Bytes)
                ---------  ---------  ---------  ---------  ---------
                 RES_VECT       code   0x000000    program   0x000066
                   .cinit    romdata   0x000066    program   0x000002
                MAIN_PROG       code   0x000068    program   0x000262
.config_300000_BUILD/DEFAULT/PRODUCTION/_EXT/18    romdata   0x300000    program   0x000001
.config_300001_BUILD/DEFAULT/PRODUCTION/_EXT/18    romdata   0x300001    program   0x000001
.config_300004_BUILD/DEFAULT/PRODUCTION/_EXT/18    romdata   0x300004    program   0x000001
.config_300007_BUILD/DEFAULT/PRODUCTION/_EXT/18    romdata   0x300007    program   0x000001



                              Program Memory Usage 
                               Start         End      
                           ---------   ---------      
                            0x000000    0x0002c9      
                            0x300000    0x300001      
                            0x300004    0x300004      
                            0x300007    0x300007      
            718 out of 33054 program addresses used, program memory utilization is 2%



                              Symbols - Sorted by Name
                     Name    Address   Location    Storage File                     
                ---------  ---------  ---------  --------- ---------                
          AllRGBLEDsWhite   0x000266    program     static C:\Users\louis\source\repos\ISEN\CSI3\projet-janvier-assembleur-PIC18\projet_janvier.X\main.asm
                     Bit0   0x00018c    program     static C:\Users\louis\source\repos\ISEN\CSI3\projet-janvier-assembleur-PIC18\projet_janvier.X\main.asm
                     Bit1   0x0001ac    program     static C:\Users\louis\source\repos\ISEN\CSI3\projet-janvier-assembleur-PIC18\projet_janvier.X\main.asm
                     Blue   0x00022e    program     static C:\Users\louis\source\repos\ISEN\CSI3\projet-janvier-assembleur-PIC18\projet_janvier.X\main.asm
                 ColorOff   0x0001f0    program     static C:\Users\louis\source\repos\ISEN\CSI3\projet-janvier-assembleur-PIC18\projet_janvier.X\main.asm
                  ColorOn   0x0001ce    program     static C:\Users\louis\source\repos\ISEN\CSI3\projet-janvier-assembleur-PIC18\projet_janvier.X\main.asm
            ConfigButtons   0x000034    program     static C:\Users\louis\source\repos\ISEN\CSI3\projet-janvier-assembleur-PIC18\projet_janvier.X\main.asm
                ConfigOsc   0x000004    program     static C:\Users\louis\source\repos\ISEN\CSI3\projet-janvier-assembleur-PIC18\projet_janvier.X\main.asm
                ConfigPWM   0x000066    program     static C:\Users\louis\source\repos\ISEN\CSI3\projet-janvier-assembleur-PIC18\projet_janvier.X\main.asm
              ConfigPorts   0x000012    program     static C:\Users\louis\source\repos\ISEN\CSI3\projet-janvier-assembleur-PIC18\projet_janvier.X\main.asm
                ConfigRGB   0x000026    program     static C:\Users\louis\source\repos\ISEN\CSI3\projet-janvier-assembleur-PIC18\projet_janvier.X\main.asm
                    Green   0x000220    program     static C:\Users\louis\source\repos\ISEN\CSI3\projet-janvier-assembleur-PIC18\projet_janvier.X\main.asm
               LEDv_blink   0x000168    program     static C:\Users\louis\source\repos\ISEN\CSI3\projet-janvier-assembleur-PIC18\projet_janvier.X\main.asm
                MAIN_LOOP   0x000078    program     static C:\Users\louis\source\repos\ISEN\CSI3\projet-janvier-assembleur-PIC18\projet_janvier.X\main.asm
                RGBLEDoff   0x000258    program     static C:\Users\louis\source\repos\ISEN\CSI3\projet-janvier-assembleur-PIC18\projet_janvier.X\main.asm
                      Red   0x000212    program     static C:\Users\louis\source\repos\ISEN\CSI3\projet-janvier-assembleur-PIC18\projet_janvier.X\main.asm
                 ResetRGB   0x000298    program     static C:\Users\louis\source\repos\ISEN\CSI3\projet-janvier-assembleur-PIC18\projet_janvier.X\main.asm
                    START   0x000068    program     static C:\Users\louis\source\repos\ISEN\CSI3\projet-janvier-assembleur-PIC18\projet_janvier.X\main.asm
               TEMPO_0_2S   0x000106    program     static C:\Users\louis\source\repos\ISEN\CSI3\projet-janvier-assembleur-PIC18\projet_janvier.X\main.asm
           TEMPO_0_2S_RUN   0x000116    program     static C:\Users\louis\source\repos\ISEN\CSI3\projet-janvier-assembleur-PIC18\projet_janvier.X\main.asm
               TEMPO_0_5S   0x00009e    program     static C:\Users\louis\source\repos\ISEN\CSI3\projet-janvier-assembleur-PIC18\projet_janvier.X\main.asm
           TEMPO_0_5S_RUN   0x0000ae    program     static C:\Users\louis\source\repos\ISEN\CSI3\projet-janvier-assembleur-PIC18\projet_janvier.X\main.asm
              TEMPO_100US   0x0000b8    program     static C:\Users\louis\source\repos\ISEN\CSI3\projet-janvier-assembleur-PIC18\projet_janvier.X\main.asm
          TEMPO_100US_RUN   0x0000c8    program     static C:\Users\louis\source\repos\ISEN\CSI3\projet-janvier-assembleur-PIC18\projet_janvier.X\main.asm
               TEMPO_10MS   0x0000d2    program     static C:\Users\louis\source\repos\ISEN\CSI3\projet-janvier-assembleur-PIC18\projet_janvier.X\main.asm
           TEMPO_10MS_RUN   0x0000e2    program     static C:\Users\louis\source\repos\ISEN\CSI3\projet-janvier-assembleur-PIC18\projet_janvier.X\main.asm
                 TEMPO_1S   0x000084    program     static C:\Users\louis\source\repos\ISEN\CSI3\projet-janvier-assembleur-PIC18\projet_janvier.X\main.asm
             TEMPO_1S_RUN   0x000094    program     static C:\Users\louis\source\repos\ISEN\CSI3\projet-janvier-assembleur-PIC18\projet_janvier.X\main.asm
               TEMPO_20MS   0x0000ec    program     static C:\Users\louis\source\repos\ISEN\CSI3\projet-janvier-assembleur-PIC18\projet_janvier.X\main.asm
           TEMPO_20MS_RUN   0x0000fc    program     static C:\Users\louis\source\repos\ISEN\CSI3\projet-janvier-assembleur-PIC18\projet_janvier.X\main.asm
           TurnOffAllLEDs   0x00015c    program     static C:\Users\louis\source\repos\ISEN\CSI3\projet-janvier-assembleur-PIC18\projet_janvier.X\main.asm
               TurnOffLD0   0x000120    program     static C:\Users\louis\source\repos\ISEN\CSI3\projet-janvier-assembleur-PIC18\projet_janvier.X\main.asm
               TurnOffLD1   0x00012c    program     static C:\Users\louis\source\repos\ISEN\CSI3\projet-janvier-assembleur-PIC18\projet_janvier.X\main.asm
               TurnOffLD2   0x000138    program     static C:\Users\louis\source\repos\ISEN\CSI3\projet-janvier-assembleur-PIC18\projet_janvier.X\main.asm
               TurnOffLD3   0x000144    program     static C:\Users\louis\source\repos\ISEN\CSI3\projet-janvier-assembleur-PIC18\projet_janvier.X\main.asm
            TurnOnAllLEDs   0x000150    program     static C:\Users\louis\source\repos\ISEN\CSI3\projet-janvier-assembleur-PIC18\projet_janvier.X\main.asm
                TurnOnLD0   0x000126    program     static C:\Users\louis\source\repos\ISEN\CSI3\projet-janvier-assembleur-PIC18\projet_janvier.X\main.asm
                TurnOnLD1   0x000132    program     static C:\Users\louis\source\repos\ISEN\CSI3\projet-janvier-assembleur-PIC18\projet_janvier.X\main.asm
                TurnOnLD2   0x00013e    program     static C:\Users\louis\source\repos\ISEN\CSI3\projet-janvier-assembleur-PIC18\projet_janvier.X\main.asm
                TurnOnLD3   0x00014a    program     static C:\Users\louis\source\repos\ISEN\CSI3\projet-janvier-assembleur-PIC18\projet_janvier.X\main.asm
                    White   0x00024a    program     static C:\Users\louis\source\repos\ISEN\CSI3\projet-janvier-assembleur-PIC18\projet_janvier.X\main.asm
                   Yellow   0x00023c    program     static C:\Users\louis\source\repos\ISEN\CSI3\projet-janvier-assembleur-PIC18\projet_janvier.X\main.asm



                              Symbols - Sorted by Address
                     Name    Address   Location    Storage File                     
                ---------  ---------  ---------  --------- ---------                
                ConfigOsc   0x000004    program     static C:\Users\louis\source\repos\ISEN\CSI3\projet-janvier-assembleur-PIC18\projet_janvier.X\main.asm
              ConfigPorts   0x000012    program     static C:\Users\louis\source\repos\ISEN\CSI3\projet-janvier-assembleur-PIC18\projet_janvier.X\main.asm
                ConfigRGB   0x000026    program     static C:\Users\louis\source\repos\ISEN\CSI3\projet-janvier-assembleur-PIC18\projet_janvier.X\main.asm
            ConfigButtons   0x000034    program     static C:\Users\louis\source\repos\ISEN\CSI3\projet-janvier-assembleur-PIC18\projet_janvier.X\main.asm
                ConfigPWM   0x000066    program     static C:\Users\louis\source\repos\ISEN\CSI3\projet-janvier-assembleur-PIC18\projet_janvier.X\main.asm
                    START   0x000068    program     static C:\Users\louis\source\repos\ISEN\CSI3\projet-janvier-assembleur-PIC18\projet_janvier.X\main.asm
                MAIN_LOOP   0x000078    program     static C:\Users\louis\source\repos\ISEN\CSI3\projet-janvier-assembleur-PIC18\projet_janvier.X\main.asm
                 TEMPO_1S   0x000084    program     static C:\Users\louis\source\repos\ISEN\CSI3\projet-janvier-assembleur-PIC18\projet_janvier.X\main.asm
             TEMPO_1S_RUN   0x000094    program     static C:\Users\louis\source\repos\ISEN\CSI3\projet-janvier-assembleur-PIC18\projet_janvier.X\main.asm
               TEMPO_0_5S   0x00009e    program     static C:\Users\louis\source\repos\ISEN\CSI3\projet-janvier-assembleur-PIC18\projet_janvier.X\main.asm
           TEMPO_0_5S_RUN   0x0000ae    program     static C:\Users\louis\source\repos\ISEN\CSI3\projet-janvier-assembleur-PIC18\projet_janvier.X\main.asm
              TEMPO_100US   0x0000b8    program     static C:\Users\louis\source\repos\ISEN\CSI3\projet-janvier-assembleur-PIC18\projet_janvier.X\main.asm
          TEMPO_100US_RUN   0x0000c8    program     static C:\Users\louis\source\repos\ISEN\CSI3\projet-janvier-assembleur-PIC18\projet_janvier.X\main.asm
               TEMPO_10MS   0x0000d2    program     static C:\Users\louis\source\repos\ISEN\CSI3\projet-janvier-assembleur-PIC18\projet_janvier.X\main.asm
           TEMPO_10MS_RUN   0x0000e2    program     static C:\Users\louis\source\repos\ISEN\CSI3\projet-janvier-assembleur-PIC18\projet_janvier.X\main.asm
               TEMPO_20MS   0x0000ec    program     static C:\Users\louis\source\repos\ISEN\CSI3\projet-janvier-assembleur-PIC18\projet_janvier.X\main.asm
           TEMPO_20MS_RUN   0x0000fc    program     static C:\Users\louis\source\repos\ISEN\CSI3\projet-janvier-assembleur-PIC18\projet_janvier.X\main.asm
               TEMPO_0_2S   0x000106    program     static C:\Users\louis\source\repos\ISEN\CSI3\projet-janvier-assembleur-PIC18\projet_janvier.X\main.asm
           TEMPO_0_2S_RUN   0x000116    program     static C:\Users\louis\source\repos\ISEN\CSI3\projet-janvier-assembleur-PIC18\projet_janvier.X\main.asm
               TurnOffLD0   0x000120    program     static C:\Users\louis\source\repos\ISEN\CSI3\projet-janvier-assembleur-PIC18\projet_janvier.X\main.asm
                TurnOnLD0   0x000126    program     static C:\Users\louis\source\repos\ISEN\CSI3\projet-janvier-assembleur-PIC18\projet_janvier.X\main.asm
               TurnOffLD1   0x00012c    program     static C:\Users\louis\source\repos\ISEN\CSI3\projet-janvier-assembleur-PIC18\projet_janvier.X\main.asm
                TurnOnLD1   0x000132    program     static C:\Users\louis\source\repos\ISEN\CSI3\projet-janvier-assembleur-PIC18\projet_janvier.X\main.asm
               TurnOffLD2   0x000138    program     static C:\Users\louis\source\repos\ISEN\CSI3\projet-janvier-assembleur-PIC18\projet_janvier.X\main.asm
                TurnOnLD2   0x00013e    program     static C:\Users\louis\source\repos\ISEN\CSI3\projet-janvier-assembleur-PIC18\projet_janvier.X\main.asm
               TurnOffLD3   0x000144    program     static C:\Users\louis\source\repos\ISEN\CSI3\projet-janvier-assembleur-PIC18\projet_janvier.X\main.asm
                TurnOnLD3   0x00014a    program     static C:\Users\louis\source\repos\ISEN\CSI3\projet-janvier-assembleur-PIC18\projet_janvier.X\main.asm
            TurnOnAllLEDs   0x000150    program     static C:\Users\louis\source\repos\ISEN\CSI3\projet-janvier-assembleur-PIC18\projet_janvier.X\main.asm
           TurnOffAllLEDs   0x00015c    program     static C:\Users\louis\source\repos\ISEN\CSI3\projet-janvier-assembleur-PIC18\projet_janvier.X\main.asm
               LEDv_blink   0x000168    program     static C:\Users\louis\source\repos\ISEN\CSI3\projet-janvier-assembleur-PIC18\projet_janvier.X\main.asm
                     Bit0   0x00018c    program     static C:\Users\louis\source\repos\ISEN\CSI3\projet-janvier-assembleur-PIC18\projet_janvier.X\main.asm
                     Bit1   0x0001ac    program     static C:\Users\louis\source\repos\ISEN\CSI3\projet-janvier-assembleur-PIC18\projet_janvier.X\main.asm
                  ColorOn   0x0001ce    program     static C:\Users\louis\source\repos\ISEN\CSI3\projet-janvier-assembleur-PIC18\projet_janvier.X\main.asm
                 ColorOff   0x0001f0    program     static C:\Users\louis\source\repos\ISEN\CSI3\projet-janvier-assembleur-PIC18\projet_janvier.X\main.asm
                      Red   0x000212    program     static C:\Users\louis\source\repos\ISEN\CSI3\projet-janvier-assembleur-PIC18\projet_janvier.X\main.asm
                    Green   0x000220    program     static C:\Users\louis\source\repos\ISEN\CSI3\projet-janvier-assembleur-PIC18\projet_janvier.X\main.asm
                     Blue   0x00022e    program     static C:\Users\louis\source\repos\ISEN\CSI3\projet-janvier-assembleur-PIC18\projet_janvier.X\main.asm
                   Yellow   0x00023c    program     static C:\Users\louis\source\repos\ISEN\CSI3\projet-janvier-assembleur-PIC18\projet_janvier.X\main.asm
                    White   0x00024a    program     static C:\Users\louis\source\repos\ISEN\CSI3\projet-janvier-assembleur-PIC18\projet_janvier.X\main.asm
                RGBLEDoff   0x000258    program     static C:\Users\louis\source\repos\ISEN\CSI3\projet-janvier-assembleur-PIC18\projet_janvier.X\main.asm
          AllRGBLEDsWhite   0x000266    program     static C:\Users\louis\source\repos\ISEN\CSI3\projet-janvier-assembleur-PIC18\projet_janvier.X\main.asm
                 ResetRGB   0x000298    program     static C:\Users\louis\source\repos\ISEN\CSI3\projet-janvier-assembleur-PIC18\projet_janvier.X\main.asm


