MPLINK 5.09, LINKER
Linker Map File - Created Wed Jan 14 16:56:51 2026

                                 Section Info
                  Section       Type    Address   Location Size(Bytes)
                ---------  ---------  ---------  ---------  ---------
                 RES_VECT       code   0x000000    program   0x000066
                   .cinit    romdata   0x000066    program   0x000002
                MAIN_PROG       code   0x000068    program   0x0004a6
.config_300000_BUILD/DEFAULT/PRODUCTION/_EXT/18    romdata   0x300000    program   0x000001
.config_300001_BUILD/DEFAULT/PRODUCTION/_EXT/18    romdata   0x300001    program   0x000001
.config_300004_BUILD/DEFAULT/PRODUCTION/_EXT/18    romdata   0x300004    program   0x000001
.config_300007_BUILD/DEFAULT/PRODUCTION/_EXT/18    romdata   0x300007    program   0x000001
                      var      udata   0x000000       data   0x000009
                rgbColors      udata   0x000060       data   0x00000c



                              Program Memory Usage 
                               Start         End      
                           ---------   ---------      
                            0x000000    0x00050d      
                            0x300000    0x300001      
                            0x300004    0x300004      
                            0x300007    0x300007      
            1298 out of 33054 program addresses used, program memory utilization is 3%



                              Symbols - Sorted by Name
                     Name    Address   Location    Storage File                     
                ---------  ---------  ---------  --------- ---------                
            AllRGBLEDsOff   0x000300    program     static C:\Users\louis\source\repos\ISEN\CSI3\projet-janvier-assembleur-PIC18\projet_janvier.X\main.asm
          AllRGBLEDsWhite   0x00029c    program     static C:\Users\louis\source\repos\ISEN\CSI3\projet-janvier-assembleur-PIC18\projet_janvier.X\main.asm
              AwaitButton   0x000332    program     static C:\Users\louis\source\repos\ISEN\CSI3\projet-janvier-assembleur-PIC18\projet_janvier.X\main.asm
                     Bit0   0x0001b4    program     static C:\Users\louis\source\repos\ISEN\CSI3\projet-janvier-assembleur-PIC18\projet_janvier.X\main.asm
                     Bit1   0x0001d4    program     static C:\Users\louis\source\repos\ISEN\CSI3\projet-janvier-assembleur-PIC18\projet_janvier.X\main.asm
                     Blue   0x000256    program     static C:\Users\louis\source\repos\ISEN\CSI3\projet-janvier-assembleur-PIC18\projet_janvier.X\main.asm
            ButtonPress_1   0x000380    program     static C:\Users\louis\source\repos\ISEN\CSI3\projet-janvier-assembleur-PIC18\projet_janvier.X\main.asm
            ButtonPress_2   0x00036e    program     static C:\Users\louis\source\repos\ISEN\CSI3\projet-janvier-assembleur-PIC18\projet_janvier.X\main.asm
            ButtonPress_3   0x00035c    program     static C:\Users\louis\source\repos\ISEN\CSI3\projet-janvier-assembleur-PIC18\projet_janvier.X\main.asm
            ButtonPress_4   0x00034a    program     static C:\Users\louis\source\repos\ISEN\CSI3\projet-janvier-assembleur-PIC18\projet_janvier.X\main.asm
           ButtonPress_NO   0x000392    program     static C:\Users\louis\source\repos\ISEN\CSI3\projet-janvier-assembleur-PIC18\projet_janvier.X\main.asm
                 ColorOff   0x000218    program     static C:\Users\louis\source\repos\ISEN\CSI3\projet-janvier-assembleur-PIC18\projet_janvier.X\main.asm
                  ColorOn   0x0001f6    program     static C:\Users\louis\source\repos\ISEN\CSI3\projet-janvier-assembleur-PIC18\projet_janvier.X\main.asm
       ComputeLedvCounter   0x0004fa    program     static C:\Users\louis\source\repos\ISEN\CSI3\projet-janvier-assembleur-PIC18\projet_janvier.X\main.asm
      ComputeMinutesIndex   0x0004e6    program     static C:\Users\louis\source\repos\ISEN\CSI3\projet-janvier-assembleur-PIC18\projet_janvier.X\main.asm
            ConfigButtons   0x000034    program     static C:\Users\louis\source\repos\ISEN\CSI3\projet-janvier-assembleur-PIC18\projet_janvier.X\main.asm
                ConfigOsc   0x000004    program     static C:\Users\louis\source\repos\ISEN\CSI3\projet-janvier-assembleur-PIC18\projet_janvier.X\main.asm
              ConfigPorts   0x000012    program     static C:\Users\louis\source\repos\ISEN\CSI3\projet-janvier-assembleur-PIC18\projet_janvier.X\main.asm
                ConfigRGB   0x000026    program     static C:\Users\louis\source\repos\ISEN\CSI3\projet-janvier-assembleur-PIC18\projet_janvier.X\main.asm
                  DecLEDv   0x0003ec    program     static C:\Users\louis\source\repos\ISEN\CSI3\projet-janvier-assembleur-PIC18\projet_janvier.X\main.asm
               DecLEDv_OK   0x000408    program     static C:\Users\louis\source\repos\ISEN\CSI3\projet-janvier-assembleur-PIC18\projet_janvier.X\main.asm
                 Div5_End   0x0004f8    program     static C:\Users\louis\source\repos\ISEN\CSI3\projet-janvier-assembleur-PIC18\projet_janvier.X\main.asm
                Div5_End2   0x000508    program     static C:\Users\louis\source\repos\ISEN\CSI3\projet-janvier-assembleur-PIC18\projet_janvier.X\main.asm
                Div5_Loop   0x0004ec    program     static C:\Users\louis\source\repos\ISEN\CSI3\projet-janvier-assembleur-PIC18\projet_janvier.X\main.asm
               Div5_Loop2   0x0004fe    program     static C:\Users\louis\source\repos\ISEN\CSI3\projet-janvier-assembleur-PIC18\projet_janvier.X\main.asm
         FirstRGBLEDWhite   0x0002ce    program     static C:\Users\louis\source\repos\ISEN\CSI3\projet-janvier-assembleur-PIC18\projet_janvier.X\main.asm
                    Green   0x000248    program     static C:\Users\louis\source\repos\ISEN\CSI3\projet-janvier-assembleur-PIC18\projet_janvier.X\main.asm
                    H2_OK   0x0003ba    program     static C:\Users\louis\source\repos\ISEN\CSI3\projet-janvier-assembleur-PIC18\projet_janvier.X\main.asm
                    H3_OK   0x0003a6    program     static C:\Users\louis\source\repos\ISEN\CSI3\projet-janvier-assembleur-PIC18\projet_janvier.X\main.asm
           HandleButton_1   0x0003c0    program     static C:\Users\louis\source\repos\ISEN\CSI3\projet-janvier-assembleur-PIC18\projet_janvier.X\main.asm
           HandleButton_2   0x0003ac    program     static C:\Users\louis\source\repos\ISEN\CSI3\projet-janvier-assembleur-PIC18\projet_janvier.X\main.asm
           HandleButton_3   0x00039a    program     static C:\Users\louis\source\repos\ISEN\CSI3\projet-janvier-assembleur-PIC18\projet_janvier.X\main.asm
           HandleButton_4   0x000394    program     static C:\Users\louis\source\repos\ISEN\CSI3\projet-janvier-assembleur-PIC18\projet_janvier.X\main.asm
                  IncLEDv   0x0003c6    program     static C:\Users\louis\source\repos\ISEN\CSI3\projet-janvier-assembleur-PIC18\projet_janvier.X\main.asm
           IncLEDv_NoWrap   0x0003de    program     static C:\Users\louis\source\repos\ISEN\CSI3\projet-janvier-assembleur-PIC18\projet_janvier.X\main.asm
               LEDv_blink   0x000190    program     static C:\Users\louis\source\repos\ISEN\CSI3\projet-janvier-assembleur-PIC18\projet_janvier.X\main.asm
        LoopSetColorIndex   0x00048e    program     static C:\Users\louis\source\repos\ISEN\CSI3\projet-janvier-assembleur-PIC18\projet_janvier.X\main.asm
                MAIN_LOOP   0x0000a4    program     static C:\Users\louis\source\repos\ISEN\CSI3\projet-janvier-assembleur-PIC18\projet_janvier.X\main.asm
                   Purple   0x000272    program     static C:\Users\louis\source\repos\ISEN\CSI3\projet-janvier-assembleur-PIC18\projet_janvier.X\main.asm
                RGBLEDOff   0x00028e    program     static C:\Users\louis\source\repos\ISEN\CSI3\projet-janvier-assembleur-PIC18\projet_janvier.X\main.asm
                  RGB_Off   0x0004ca    program     static C:\Users\louis\source\repos\ISEN\CSI3\projet-janvier-assembleur-PIC18\projet_janvier.X\main.asm
                      Red   0x00023a    program     static C:\Users\louis\source\repos\ISEN\CSI3\projet-janvier-assembleur-PIC18\projet_janvier.X\main.asm
                    START   0x000068    program     static C:\Users\louis\source\repos\ISEN\CSI3\projet-janvier-assembleur-PIC18\projet_janvier.X\main.asm
       SendColorForOneRGB   0x00049c    program     static C:\Users\louis\source\repos\ISEN\CSI3\projet-janvier-assembleur-PIC18\projet_janvier.X\main.asm
          SendFullBusLoop   0x0004d8    program     static C:\Users\louis\source\repos\ISEN\CSI3\projet-janvier-assembleur-PIC18\projet_janvier.X\main.asm
           SendFullBusRGB   0x0004d0    program     static C:\Users\louis\source\repos\ISEN\CSI3\projet-janvier-assembleur-PIC18\projet_janvier.X\main.asm
               TEMPO_0_1S   0x0000fa    program     static C:\Users\louis\source\repos\ISEN\CSI3\projet-janvier-assembleur-PIC18\projet_janvier.X\main.asm
           TEMPO_0_1S_RUN   0x00010a    program     static C:\Users\louis\source\repos\ISEN\CSI3\projet-janvier-assembleur-PIC18\projet_janvier.X\main.asm
               TEMPO_0_2S   0x0000e0    program     static C:\Users\louis\source\repos\ISEN\CSI3\projet-janvier-assembleur-PIC18\projet_janvier.X\main.asm
           TEMPO_0_2S_RUN   0x0000f0    program     static C:\Users\louis\source\repos\ISEN\CSI3\projet-janvier-assembleur-PIC18\projet_janvier.X\main.asm
               TEMPO_0_5S   0x0000c6    program     static C:\Users\louis\source\repos\ISEN\CSI3\projet-janvier-assembleur-PIC18\projet_janvier.X\main.asm
           TEMPO_0_5S_RUN   0x0000d6    program     static C:\Users\louis\source\repos\ISEN\CSI3\projet-janvier-assembleur-PIC18\projet_janvier.X\main.asm
               TEMPO_10MS   0x000114    program     static C:\Users\louis\source\repos\ISEN\CSI3\projet-janvier-assembleur-PIC18\projet_janvier.X\main.asm
           TEMPO_10MS_RUN   0x000124    program     static C:\Users\louis\source\repos\ISEN\CSI3\projet-janvier-assembleur-PIC18\projet_janvier.X\main.asm
                 TEMPO_1S   0x0000ac    program     static C:\Users\louis\source\repos\ISEN\CSI3\projet-janvier-assembleur-PIC18\projet_janvier.X\main.asm
             TEMPO_1S_RUN   0x0000bc    program     static C:\Users\louis\source\repos\ISEN\CSI3\projet-janvier-assembleur-PIC18\projet_janvier.X\main.asm
               TEMPO_20MS   0x00012e    program     static C:\Users\louis\source\repos\ISEN\CSI3\projet-janvier-assembleur-PIC18\projet_janvier.X\main.asm
           TEMPO_20MS_RUN   0x00013e    program     static C:\Users\louis\source\repos\ISEN\CSI3\projet-janvier-assembleur-PIC18\projet_janvier.X\main.asm
                 TestBlue   0x0004ae    program     static C:\Users\louis\source\repos\ISEN\CSI3\projet-janvier-assembleur-PIC18\projet_janvier.X\main.asm
               TestPurple   0x0004bc    program     static C:\Users\louis\source\repos\ISEN\CSI3\projet-janvier-assembleur-PIC18\projet_janvier.X\main.asm
           TurnOffAllLEDs   0x000184    program     static C:\Users\louis\source\repos\ISEN\CSI3\projet-janvier-assembleur-PIC18\projet_janvier.X\main.asm
               TurnOffLD0   0x000148    program     static C:\Users\louis\source\repos\ISEN\CSI3\projet-janvier-assembleur-PIC18\projet_janvier.X\main.asm
               TurnOffLD1   0x000154    program     static C:\Users\louis\source\repos\ISEN\CSI3\projet-janvier-assembleur-PIC18\projet_janvier.X\main.asm
               TurnOffLD2   0x000160    program     static C:\Users\louis\source\repos\ISEN\CSI3\projet-janvier-assembleur-PIC18\projet_janvier.X\main.asm
               TurnOffLD3   0x00016c    program     static C:\Users\louis\source\repos\ISEN\CSI3\projet-janvier-assembleur-PIC18\projet_janvier.X\main.asm
            TurnOnAllLEDs   0x000178    program     static C:\Users\louis\source\repos\ISEN\CSI3\projet-janvier-assembleur-PIC18\projet_janvier.X\main.asm
                TurnOnLD0   0x00014e    program     static C:\Users\louis\source\repos\ISEN\CSI3\projet-janvier-assembleur-PIC18\projet_janvier.X\main.asm
                TurnOnLD1   0x00015a    program     static C:\Users\louis\source\repos\ISEN\CSI3\projet-janvier-assembleur-PIC18\projet_janvier.X\main.asm
                TurnOnLD2   0x000166    program     static C:\Users\louis\source\repos\ISEN\CSI3\projet-janvier-assembleur-PIC18\projet_janvier.X\main.asm
                TurnOnLD3   0x000172    program     static C:\Users\louis\source\repos\ISEN\CSI3\projet-janvier-assembleur-PIC18\projet_janvier.X\main.asm
                 UGV_Chk2   0x00042c    program     static C:\Users\louis\source\repos\ISEN\CSI3\projet-janvier-assembleur-PIC18\projet_janvier.X\main.asm
                 UGV_Chk3   0x00043a    program     static C:\Users\louis\source\repos\ISEN\CSI3\projet-janvier-assembleur-PIC18\projet_janvier.X\main.asm
                 UGV_Chk4   0x000448    program     static C:\Users\louis\source\repos\ISEN\CSI3\projet-janvier-assembleur-PIC18\projet_janvier.X\main.asm
                  UGV_End   0x00044c    program     static C:\Users\louis\source\repos\ISEN\CSI3\projet-janvier-assembleur-PIC18\projet_janvier.X\main.asm
                 UR_Clear   0x000456    program     static C:\Users\louis\source\repos\ISEN\CSI3\projet-janvier-assembleur-PIC18\projet_janvier.X\main.asm
                UR_Purple   0x000484    program     static C:\Users\louis\source\repos\ISEN\CSI3\projet-janvier-assembleur-PIC18\projet_janvier.X\main.asm
                  UR_Send   0x000488    program     static C:\Users\louis\source\repos\ISEN\CSI3\projet-janvier-assembleur-PIC18\projet_janvier.X\main.asm
          UpdateGreenLEDs   0x000416    program     static C:\Users\louis\source\repos\ISEN\CSI3\projet-janvier-assembleur-PIC18\projet_janvier.X\main.asm
         UpdateRGBDisplay   0x00044e    program     static C:\Users\louis\source\repos\ISEN\CSI3\projet-janvier-assembleur-PIC18\projet_janvier.X\main.asm
                    White   0x000280    program     static C:\Users\louis\source\repos\ISEN\CSI3\projet-janvier-assembleur-PIC18\projet_janvier.X\main.asm
                   Yellow   0x000264    program     static C:\Users\louis\source\repos\ISEN\CSI3\projet-janvier-assembleur-PIC18\projet_janvier.X\main.asm
             hoursCounter   0x000004       data     static C:\Users\louis\source\repos\ISEN\CSI3\projet-janvier-assembleur-PIC18\projet_janvier.X\main.asm
           lastBtnPressed   0x000000       data     static C:\Users\louis\source\repos\ISEN\CSI3\projet-janvier-assembleur-PIC18\projet_janvier.X\main.asm
              ledvCounter   0x000001       data     static C:\Users\louis\source\repos\ISEN\CSI3\projet-janvier-assembleur-PIC18\projet_janvier.X\main.asm
           minutesCounter   0x000003       data     static C:\Users\louis\source\repos\ISEN\CSI3\projet-janvier-assembleur-PIC18\projet_janvier.X\main.asm
             minutesIndex   0x000005       data     static C:\Users\louis\source\repos\ISEN\CSI3\projet-janvier-assembleur-PIC18\projet_janvier.X\main.asm
                     rgb0   0x000060       data     static C:\Users\louis\source\repos\ISEN\CSI3\projet-janvier-assembleur-PIC18\projet_janvier.X\main.asm
                     rgb1   0x000061       data     static C:\Users\louis\source\repos\ISEN\CSI3\projet-janvier-assembleur-PIC18\projet_janvier.X\main.asm
                    rgb10   0x00006a       data     static C:\Users\louis\source\repos\ISEN\CSI3\projet-janvier-assembleur-PIC18\projet_janvier.X\main.asm
                    rgb11   0x00006b       data     static C:\Users\louis\source\repos\ISEN\CSI3\projet-janvier-assembleur-PIC18\projet_janvier.X\main.asm
                     rgb2   0x000062       data     static C:\Users\louis\source\repos\ISEN\CSI3\projet-janvier-assembleur-PIC18\projet_janvier.X\main.asm
                     rgb3   0x000063       data     static C:\Users\louis\source\repos\ISEN\CSI3\projet-janvier-assembleur-PIC18\projet_janvier.X\main.asm
                     rgb4   0x000064       data     static C:\Users\louis\source\repos\ISEN\CSI3\projet-janvier-assembleur-PIC18\projet_janvier.X\main.asm
                     rgb5   0x000065       data     static C:\Users\louis\source\repos\ISEN\CSI3\projet-janvier-assembleur-PIC18\projet_janvier.X\main.asm
                     rgb6   0x000066       data     static C:\Users\louis\source\repos\ISEN\CSI3\projet-janvier-assembleur-PIC18\projet_janvier.X\main.asm
                     rgb7   0x000067       data     static C:\Users\louis\source\repos\ISEN\CSI3\projet-janvier-assembleur-PIC18\projet_janvier.X\main.asm
                     rgb8   0x000068       data     static C:\Users\louis\source\repos\ISEN\CSI3\projet-janvier-assembleur-PIC18\projet_janvier.X\main.asm
                     rgb9   0x000069       data     static C:\Users\louis\source\repos\ISEN\CSI3\projet-janvier-assembleur-PIC18\projet_janvier.X\main.asm
           secondsCounter   0x000002       data     static C:\Users\louis\source\repos\ISEN\CSI3\projet-janvier-assembleur-PIC18\projet_janvier.X\main.asm
                     temp   0x000006       data     static C:\Users\louis\source\repos\ISEN\CSI3\projet-janvier-assembleur-PIC18\projet_janvier.X\main.asm
                    temp2   0x000007       data     static C:\Users\louis\source\repos\ISEN\CSI3\projet-janvier-assembleur-PIC18\projet_janvier.X\main.asm
                tempIndex   0x000008       data     static C:\Users\louis\source\repos\ISEN\CSI3\projet-janvier-assembleur-PIC18\projet_janvier.X\main.asm



                              Symbols - Sorted by Address
                     Name    Address   Location    Storage File                     
                ---------  ---------  ---------  --------- ---------                
                ConfigOsc   0x000004    program     static C:\Users\louis\source\repos\ISEN\CSI3\projet-janvier-assembleur-PIC18\projet_janvier.X\main.asm
              ConfigPorts   0x000012    program     static C:\Users\louis\source\repos\ISEN\CSI3\projet-janvier-assembleur-PIC18\projet_janvier.X\main.asm
                ConfigRGB   0x000026    program     static C:\Users\louis\source\repos\ISEN\CSI3\projet-janvier-assembleur-PIC18\projet_janvier.X\main.asm
            ConfigButtons   0x000034    program     static C:\Users\louis\source\repos\ISEN\CSI3\projet-janvier-assembleur-PIC18\projet_janvier.X\main.asm
                    START   0x000068    program     static C:\Users\louis\source\repos\ISEN\CSI3\projet-janvier-assembleur-PIC18\projet_janvier.X\main.asm
                MAIN_LOOP   0x0000a4    program     static C:\Users\louis\source\repos\ISEN\CSI3\projet-janvier-assembleur-PIC18\projet_janvier.X\main.asm
                 TEMPO_1S   0x0000ac    program     static C:\Users\louis\source\repos\ISEN\CSI3\projet-janvier-assembleur-PIC18\projet_janvier.X\main.asm
             TEMPO_1S_RUN   0x0000bc    program     static C:\Users\louis\source\repos\ISEN\CSI3\projet-janvier-assembleur-PIC18\projet_janvier.X\main.asm
               TEMPO_0_5S   0x0000c6    program     static C:\Users\louis\source\repos\ISEN\CSI3\projet-janvier-assembleur-PIC18\projet_janvier.X\main.asm
           TEMPO_0_5S_RUN   0x0000d6    program     static C:\Users\louis\source\repos\ISEN\CSI3\projet-janvier-assembleur-PIC18\projet_janvier.X\main.asm
               TEMPO_0_2S   0x0000e0    program     static C:\Users\louis\source\repos\ISEN\CSI3\projet-janvier-assembleur-PIC18\projet_janvier.X\main.asm
           TEMPO_0_2S_RUN   0x0000f0    program     static C:\Users\louis\source\repos\ISEN\CSI3\projet-janvier-assembleur-PIC18\projet_janvier.X\main.asm
               TEMPO_0_1S   0x0000fa    program     static C:\Users\louis\source\repos\ISEN\CSI3\projet-janvier-assembleur-PIC18\projet_janvier.X\main.asm
           TEMPO_0_1S_RUN   0x00010a    program     static C:\Users\louis\source\repos\ISEN\CSI3\projet-janvier-assembleur-PIC18\projet_janvier.X\main.asm
               TEMPO_10MS   0x000114    program     static C:\Users\louis\source\repos\ISEN\CSI3\projet-janvier-assembleur-PIC18\projet_janvier.X\main.asm
           TEMPO_10MS_RUN   0x000124    program     static C:\Users\louis\source\repos\ISEN\CSI3\projet-janvier-assembleur-PIC18\projet_janvier.X\main.asm
               TEMPO_20MS   0x00012e    program     static C:\Users\louis\source\repos\ISEN\CSI3\projet-janvier-assembleur-PIC18\projet_janvier.X\main.asm
           TEMPO_20MS_RUN   0x00013e    program     static C:\Users\louis\source\repos\ISEN\CSI3\projet-janvier-assembleur-PIC18\projet_janvier.X\main.asm
               TurnOffLD0   0x000148    program     static C:\Users\louis\source\repos\ISEN\CSI3\projet-janvier-assembleur-PIC18\projet_janvier.X\main.asm
                TurnOnLD0   0x00014e    program     static C:\Users\louis\source\repos\ISEN\CSI3\projet-janvier-assembleur-PIC18\projet_janvier.X\main.asm
               TurnOffLD1   0x000154    program     static C:\Users\louis\source\repos\ISEN\CSI3\projet-janvier-assembleur-PIC18\projet_janvier.X\main.asm
                TurnOnLD1   0x00015a    program     static C:\Users\louis\source\repos\ISEN\CSI3\projet-janvier-assembleur-PIC18\projet_janvier.X\main.asm
               TurnOffLD2   0x000160    program     static C:\Users\louis\source\repos\ISEN\CSI3\projet-janvier-assembleur-PIC18\projet_janvier.X\main.asm
                TurnOnLD2   0x000166    program     static C:\Users\louis\source\repos\ISEN\CSI3\projet-janvier-assembleur-PIC18\projet_janvier.X\main.asm
               TurnOffLD3   0x00016c    program     static C:\Users\louis\source\repos\ISEN\CSI3\projet-janvier-assembleur-PIC18\projet_janvier.X\main.asm
                TurnOnLD3   0x000172    program     static C:\Users\louis\source\repos\ISEN\CSI3\projet-janvier-assembleur-PIC18\projet_janvier.X\main.asm
            TurnOnAllLEDs   0x000178    program     static C:\Users\louis\source\repos\ISEN\CSI3\projet-janvier-assembleur-PIC18\projet_janvier.X\main.asm
           TurnOffAllLEDs   0x000184    program     static C:\Users\louis\source\repos\ISEN\CSI3\projet-janvier-assembleur-PIC18\projet_janvier.X\main.asm
               LEDv_blink   0x000190    program     static C:\Users\louis\source\repos\ISEN\CSI3\projet-janvier-assembleur-PIC18\projet_janvier.X\main.asm
                     Bit0   0x0001b4    program     static C:\Users\louis\source\repos\ISEN\CSI3\projet-janvier-assembleur-PIC18\projet_janvier.X\main.asm
                     Bit1   0x0001d4    program     static C:\Users\louis\source\repos\ISEN\CSI3\projet-janvier-assembleur-PIC18\projet_janvier.X\main.asm
                  ColorOn   0x0001f6    program     static C:\Users\louis\source\repos\ISEN\CSI3\projet-janvier-assembleur-PIC18\projet_janvier.X\main.asm
                 ColorOff   0x000218    program     static C:\Users\louis\source\repos\ISEN\CSI3\projet-janvier-assembleur-PIC18\projet_janvier.X\main.asm
                      Red   0x00023a    program     static C:\Users\louis\source\repos\ISEN\CSI3\projet-janvier-assembleur-PIC18\projet_janvier.X\main.asm
                    Green   0x000248    program     static C:\Users\louis\source\repos\ISEN\CSI3\projet-janvier-assembleur-PIC18\projet_janvier.X\main.asm
                     Blue   0x000256    program     static C:\Users\louis\source\repos\ISEN\CSI3\projet-janvier-assembleur-PIC18\projet_janvier.X\main.asm
                   Yellow   0x000264    program     static C:\Users\louis\source\repos\ISEN\CSI3\projet-janvier-assembleur-PIC18\projet_janvier.X\main.asm
                   Purple   0x000272    program     static C:\Users\louis\source\repos\ISEN\CSI3\projet-janvier-assembleur-PIC18\projet_janvier.X\main.asm
                    White   0x000280    program     static C:\Users\louis\source\repos\ISEN\CSI3\projet-janvier-assembleur-PIC18\projet_janvier.X\main.asm
                RGBLEDOff   0x00028e    program     static C:\Users\louis\source\repos\ISEN\CSI3\projet-janvier-assembleur-PIC18\projet_janvier.X\main.asm
          AllRGBLEDsWhite   0x00029c    program     static C:\Users\louis\source\repos\ISEN\CSI3\projet-janvier-assembleur-PIC18\projet_janvier.X\main.asm
         FirstRGBLEDWhite   0x0002ce    program     static C:\Users\louis\source\repos\ISEN\CSI3\projet-janvier-assembleur-PIC18\projet_janvier.X\main.asm
            AllRGBLEDsOff   0x000300    program     static C:\Users\louis\source\repos\ISEN\CSI3\projet-janvier-assembleur-PIC18\projet_janvier.X\main.asm
              AwaitButton   0x000332    program     static C:\Users\louis\source\repos\ISEN\CSI3\projet-janvier-assembleur-PIC18\projet_janvier.X\main.asm
            ButtonPress_4   0x00034a    program     static C:\Users\louis\source\repos\ISEN\CSI3\projet-janvier-assembleur-PIC18\projet_janvier.X\main.asm
            ButtonPress_3   0x00035c    program     static C:\Users\louis\source\repos\ISEN\CSI3\projet-janvier-assembleur-PIC18\projet_janvier.X\main.asm
            ButtonPress_2   0x00036e    program     static C:\Users\louis\source\repos\ISEN\CSI3\projet-janvier-assembleur-PIC18\projet_janvier.X\main.asm
            ButtonPress_1   0x000380    program     static C:\Users\louis\source\repos\ISEN\CSI3\projet-janvier-assembleur-PIC18\projet_janvier.X\main.asm
           ButtonPress_NO   0x000392    program     static C:\Users\louis\source\repos\ISEN\CSI3\projet-janvier-assembleur-PIC18\projet_janvier.X\main.asm
           HandleButton_4   0x000394    program     static C:\Users\louis\source\repos\ISEN\CSI3\projet-janvier-assembleur-PIC18\projet_janvier.X\main.asm
           HandleButton_3   0x00039a    program     static C:\Users\louis\source\repos\ISEN\CSI3\projet-janvier-assembleur-PIC18\projet_janvier.X\main.asm
                    H3_OK   0x0003a6    program     static C:\Users\louis\source\repos\ISEN\CSI3\projet-janvier-assembleur-PIC18\projet_janvier.X\main.asm
           HandleButton_2   0x0003ac    program     static C:\Users\louis\source\repos\ISEN\CSI3\projet-janvier-assembleur-PIC18\projet_janvier.X\main.asm
                    H2_OK   0x0003ba    program     static C:\Users\louis\source\repos\ISEN\CSI3\projet-janvier-assembleur-PIC18\projet_janvier.X\main.asm
           HandleButton_1   0x0003c0    program     static C:\Users\louis\source\repos\ISEN\CSI3\projet-janvier-assembleur-PIC18\projet_janvier.X\main.asm
                  IncLEDv   0x0003c6    program     static C:\Users\louis\source\repos\ISEN\CSI3\projet-janvier-assembleur-PIC18\projet_janvier.X\main.asm
           IncLEDv_NoWrap   0x0003de    program     static C:\Users\louis\source\repos\ISEN\CSI3\projet-janvier-assembleur-PIC18\projet_janvier.X\main.asm
                  DecLEDv   0x0003ec    program     static C:\Users\louis\source\repos\ISEN\CSI3\projet-janvier-assembleur-PIC18\projet_janvier.X\main.asm
               DecLEDv_OK   0x000408    program     static C:\Users\louis\source\repos\ISEN\CSI3\projet-janvier-assembleur-PIC18\projet_janvier.X\main.asm
          UpdateGreenLEDs   0x000416    program     static C:\Users\louis\source\repos\ISEN\CSI3\projet-janvier-assembleur-PIC18\projet_janvier.X\main.asm
                 UGV_Chk2   0x00042c    program     static C:\Users\louis\source\repos\ISEN\CSI3\projet-janvier-assembleur-PIC18\projet_janvier.X\main.asm
                 UGV_Chk3   0x00043a    program     static C:\Users\louis\source\repos\ISEN\CSI3\projet-janvier-assembleur-PIC18\projet_janvier.X\main.asm
                 UGV_Chk4   0x000448    program     static C:\Users\louis\source\repos\ISEN\CSI3\projet-janvier-assembleur-PIC18\projet_janvier.X\main.asm
                  UGV_End   0x00044c    program     static C:\Users\louis\source\repos\ISEN\CSI3\projet-janvier-assembleur-PIC18\projet_janvier.X\main.asm
         UpdateRGBDisplay   0x00044e    program     static C:\Users\louis\source\repos\ISEN\CSI3\projet-janvier-assembleur-PIC18\projet_janvier.X\main.asm
                 UR_Clear   0x000456    program     static C:\Users\louis\source\repos\ISEN\CSI3\projet-janvier-assembleur-PIC18\projet_janvier.X\main.asm
                UR_Purple   0x000484    program     static C:\Users\louis\source\repos\ISEN\CSI3\projet-janvier-assembleur-PIC18\projet_janvier.X\main.asm
                  UR_Send   0x000488    program     static C:\Users\louis\source\repos\ISEN\CSI3\projet-janvier-assembleur-PIC18\projet_janvier.X\main.asm
        LoopSetColorIndex   0x00048e    program     static C:\Users\louis\source\repos\ISEN\CSI3\projet-janvier-assembleur-PIC18\projet_janvier.X\main.asm
       SendColorForOneRGB   0x00049c    program     static C:\Users\louis\source\repos\ISEN\CSI3\projet-janvier-assembleur-PIC18\projet_janvier.X\main.asm
                 TestBlue   0x0004ae    program     static C:\Users\louis\source\repos\ISEN\CSI3\projet-janvier-assembleur-PIC18\projet_janvier.X\main.asm
               TestPurple   0x0004bc    program     static C:\Users\louis\source\repos\ISEN\CSI3\projet-janvier-assembleur-PIC18\projet_janvier.X\main.asm
                  RGB_Off   0x0004ca    program     static C:\Users\louis\source\repos\ISEN\CSI3\projet-janvier-assembleur-PIC18\projet_janvier.X\main.asm
           SendFullBusRGB   0x0004d0    program     static C:\Users\louis\source\repos\ISEN\CSI3\projet-janvier-assembleur-PIC18\projet_janvier.X\main.asm
          SendFullBusLoop   0x0004d8    program     static C:\Users\louis\source\repos\ISEN\CSI3\projet-janvier-assembleur-PIC18\projet_janvier.X\main.asm
      ComputeMinutesIndex   0x0004e6    program     static C:\Users\louis\source\repos\ISEN\CSI3\projet-janvier-assembleur-PIC18\projet_janvier.X\main.asm
                Div5_Loop   0x0004ec    program     static C:\Users\louis\source\repos\ISEN\CSI3\projet-janvier-assembleur-PIC18\projet_janvier.X\main.asm
                 Div5_End   0x0004f8    program     static C:\Users\louis\source\repos\ISEN\CSI3\projet-janvier-assembleur-PIC18\projet_janvier.X\main.asm
       ComputeLedvCounter   0x0004fa    program     static C:\Users\louis\source\repos\ISEN\CSI3\projet-janvier-assembleur-PIC18\projet_janvier.X\main.asm
               Div5_Loop2   0x0004fe    program     static C:\Users\louis\source\repos\ISEN\CSI3\projet-janvier-assembleur-PIC18\projet_janvier.X\main.asm
                Div5_End2   0x000508    program     static C:\Users\louis\source\repos\ISEN\CSI3\projet-janvier-assembleur-PIC18\projet_janvier.X\main.asm
           lastBtnPressed   0x000000       data     static C:\Users\louis\source\repos\ISEN\CSI3\projet-janvier-assembleur-PIC18\projet_janvier.X\main.asm
              ledvCounter   0x000001       data     static C:\Users\louis\source\repos\ISEN\CSI3\projet-janvier-assembleur-PIC18\projet_janvier.X\main.asm
           secondsCounter   0x000002       data     static C:\Users\louis\source\repos\ISEN\CSI3\projet-janvier-assembleur-PIC18\projet_janvier.X\main.asm
           minutesCounter   0x000003       data     static C:\Users\louis\source\repos\ISEN\CSI3\projet-janvier-assembleur-PIC18\projet_janvier.X\main.asm
             hoursCounter   0x000004       data     static C:\Users\louis\source\repos\ISEN\CSI3\projet-janvier-assembleur-PIC18\projet_janvier.X\main.asm
             minutesIndex   0x000005       data     static C:\Users\louis\source\repos\ISEN\CSI3\projet-janvier-assembleur-PIC18\projet_janvier.X\main.asm
                     temp   0x000006       data     static C:\Users\louis\source\repos\ISEN\CSI3\projet-janvier-assembleur-PIC18\projet_janvier.X\main.asm
                    temp2   0x000007       data     static C:\Users\louis\source\repos\ISEN\CSI3\projet-janvier-assembleur-PIC18\projet_janvier.X\main.asm
                tempIndex   0x000008       data     static C:\Users\louis\source\repos\ISEN\CSI3\projet-janvier-assembleur-PIC18\projet_janvier.X\main.asm
                     rgb0   0x000060       data     static C:\Users\louis\source\repos\ISEN\CSI3\projet-janvier-assembleur-PIC18\projet_janvier.X\main.asm
                     rgb1   0x000061       data     static C:\Users\louis\source\repos\ISEN\CSI3\projet-janvier-assembleur-PIC18\projet_janvier.X\main.asm
                     rgb2   0x000062       data     static C:\Users\louis\source\repos\ISEN\CSI3\projet-janvier-assembleur-PIC18\projet_janvier.X\main.asm
                     rgb3   0x000063       data     static C:\Users\louis\source\repos\ISEN\CSI3\projet-janvier-assembleur-PIC18\projet_janvier.X\main.asm
                     rgb4   0x000064       data     static C:\Users\louis\source\repos\ISEN\CSI3\projet-janvier-assembleur-PIC18\projet_janvier.X\main.asm
                     rgb5   0x000065       data     static C:\Users\louis\source\repos\ISEN\CSI3\projet-janvier-assembleur-PIC18\projet_janvier.X\main.asm
                     rgb6   0x000066       data     static C:\Users\louis\source\repos\ISEN\CSI3\projet-janvier-assembleur-PIC18\projet_janvier.X\main.asm
                     rgb7   0x000067       data     static C:\Users\louis\source\repos\ISEN\CSI3\projet-janvier-assembleur-PIC18\projet_janvier.X\main.asm
                     rgb8   0x000068       data     static C:\Users\louis\source\repos\ISEN\CSI3\projet-janvier-assembleur-PIC18\projet_janvier.X\main.asm
                     rgb9   0x000069       data     static C:\Users\louis\source\repos\ISEN\CSI3\projet-janvier-assembleur-PIC18\projet_janvier.X\main.asm
                    rgb10   0x00006a       data     static C:\Users\louis\source\repos\ISEN\CSI3\projet-janvier-assembleur-PIC18\projet_janvier.X\main.asm
                    rgb11   0x00006b       data     static C:\Users\louis\source\repos\ISEN\CSI3\projet-janvier-assembleur-PIC18\projet_janvier.X\main.asm


